target datalayout = "e-m:e-p270:32:32-p271:32:32-p272:64:64-i64:64-i128:128-f80:128-n8:16:32:64-S128"
target triple = "x86_64-pc-linux-gnu"

%struct.zstream = type { i64, i64, i64, i64, %struct.z_stream_s, ptr }
%struct.z_stream_s = type { ptr, i32, i64, ptr, i32, i64, ptr, ptr, ptr, ptr, ptr, i32, i64, i64 }
%struct.gzfile = type { %struct.zstream, i64, i32, i32, i64, i64, i64, i64, i32, i32, i64, ptr, ptr, ptr, ptr, i64, i64 }
%struct.RString = type { %struct.RBasic, i64, %union.anon }
%struct.RBasic = type { i64, i64 }
%union.anon = type { %struct.anon }
%struct.anon = type { ptr, %union.anon.0 }
%union.anon.0 = type { i64 }
%struct.anon.1 = type { [1 x i8] }

@.str.169 = private unnamed_addr constant [2 x i8] zeroinitializer, align 1

; Function Attrs: inlinehint nounwind sspstrong willreturn memory(read) uwtable
define internal i64 @RB_FL_TEST_RAW(i64 noundef %0, i64 noundef %1) #6 {
  %3 = alloca i64, align 8
  %4 = alloca i64, align 8
  store i64 %0, ptr %3, align 8, !tbaa !6
  store i64 %1, ptr %4, align 8, !tbaa !6
  %5 = load i64, ptr %3, align 8, !tbaa !6
  %6 = inttoptr i64 %5 to ptr
  %7 = getelementptr inbounds nuw %struct.RBasic, ptr %6, i32 0, i32 0
  %8 = load i64, ptr %7, align 8, !tbaa !91
  %9 = load i64, ptr %4, align 8, !tbaa !6
  %10 = and i64 %8, %9
  ret i64 %10
}

; Function Attrs: inlinehint nounwind sspstrong willreturn memory(read) uwtable
define internal zeroext i1 @RB_FL_ANY_RAW(i64 noundef %0, i64 noundef %1) #6 {
  %3 = alloca i64, align 8
  %4 = alloca i64, align 8
  store i64 %0, ptr %3, align 8, !tbaa !6
  store i64 %1, ptr %4, align 8, !tbaa !6
  %5 = load i64, ptr %3, align 8, !tbaa !6
  %6 = load i64, ptr %4, align 8, !tbaa !6
  %7 = call i64 @RB_FL_TEST_RAW(i64 noundef %5, i64 noundef %6) #25
  %8 = icmp ne i64 %7, 0
  ret i1 %8
}

; Function Attrs: inlinehint nounwind sspstrong willreturn memory(read, argmem: readwrite) uwtable
define internal void @rbimpl_rstring_getmem(ptr dead_on_unwind noalias writable sret(%struct.RString) align 8 %0, i64 noundef %1) #9 {
  %3 = alloca i64, align 8
  store i64 %1, ptr %3, align 8, !tbaa !6
  %4 = load i64, ptr %3, align 8, !tbaa !6
  %5 = call zeroext i1 @RB_FL_ANY_RAW(i64 noundef %4, i64 noundef 8192) #25
  br i1 %5, label %6, label %9

6:                                                ; preds = %2
  %7 = load i64, ptr %3, align 8, !tbaa !6
  %8 = inttoptr i64 %7 to ptr
  call void @llvm.memcpy.p0.p0.i64(ptr align 8 %0, ptr align 8 %8, i64 40, i1 false), !tbaa.struct !92
  br label %20

9:                                                ; preds = %2
  %10 = load i64, ptr %3, align 8, !tbaa !6
  %11 = call i64 @RSTRING_LEN(i64 noundef %10) #25
  %12 = getelementptr inbounds nuw %struct.RString, ptr %0, i32 0, i32 1
  store i64 %11, ptr %12, align 8, !tbaa !88
  %13 = load i64, ptr %3, align 8, !tbaa !6
  %14 = inttoptr i64 %13 to ptr
  %15 = getelementptr inbounds nuw %struct.RString, ptr %14, i32 0, i32 2
  %16 = getelementptr inbounds nuw %struct.anon.1, ptr %15, i32 0, i32 0
  %17 = getelementptr inbounds [1 x i8], ptr %16, i64 0, i64 0
  %18 = getelementptr inbounds nuw %struct.RString, ptr %0, i32 0, i32 2
  %19 = getelementptr inbounds nuw %struct.anon, ptr %18, i32 0, i32 0
  store ptr %17, ptr %19, align 8, !tbaa !68
  br label %20

20:                                               ; preds = %9, %6
  ret void
}

; Function Attrs: inlinehint nounwind sspstrong willreturn memory(read) uwtable
define internal i64 @RSTRING_LEN(i64 noundef %0) #6 {
  %2 = alloca i64, align 8
  store i64 %0, ptr %2, align 8, !tbaa !6
  %3 = load i64, ptr %2, align 8, !tbaa !6
  %4 = inttoptr i64 %3 to ptr
  %5 = getelementptr inbounds nuw %struct.RString, ptr %4, i32 0, i32 1
  %6 = load i64, ptr %5, align 8, !tbaa !88
  ret i64 %6
}

; Function Attrs: inlinehint nounwind sspstrong uwtable
define internal ptr @RSTRING_PTR(i64 noundef %0) #3 {
  %2 = alloca i64, align 8
  %3 = alloca ptr, align 8
  %4 = alloca %struct.RString, align 8
  store i64 %0, ptr %2, align 8, !tbaa !6
  call void @llvm.lifetime.start.p0(i64 8, ptr %3) #23
  %5 = load i64, ptr %2, align 8, !tbaa !6
  call void @rbimpl_rstring_getmem(ptr dead_on_unwind writable sret(%struct.RString) align 8 %4, i64 noundef %5) #28
  %6 = getelementptr inbounds nuw %struct.RString, ptr %4, i32 0, i32 2
  %7 = getelementptr inbounds nuw %struct.anon, ptr %6, i32 0, i32 0
  %8 = load ptr, ptr %7, align 8, !tbaa !68
  store ptr %8, ptr %3, align 8, !tbaa !19
  %9 = load ptr, ptr %3, align 8, !tbaa !19
  call void @llvm.lifetime.end.p0(i64 8, ptr %3) #23
  ret ptr %9
}

; Function Attrs: nounwind sspstrong uwtable
define internal void @gzfile_set32(i64 noundef %0, ptr noundef %1) #0 {
  %3 = alloca i64, align 8
  %4 = alloca ptr, align 8
  store i64 %0, ptr %3, align 8, !tbaa !6
  store ptr %1, ptr %4, align 8, !tbaa !19
  %5 = load i64, ptr %3, align 8, !tbaa !6
  %6 = and i64 %5, 255
  %7 = trunc i64 %6 to i8
  %8 = load ptr, ptr %4, align 8, !tbaa !19
  %9 = getelementptr inbounds nuw i8, ptr %8, i32 1
  store ptr %9, ptr %4, align 8, !tbaa !19
  store i8 %7, ptr %8, align 1, !tbaa !68
  %10 = load i64, ptr %3, align 8, !tbaa !6
  %11 = lshr i64 %10, 8
  %12 = and i64 %11, 255
  %13 = trunc i64 %12 to i8
  %14 = load ptr, ptr %4, align 8, !tbaa !19
  %15 = getelementptr inbounds nuw i8, ptr %14, i32 1
  store ptr %15, ptr %4, align 8, !tbaa !19
  store i8 %13, ptr %14, align 1, !tbaa !68
  %16 = load i64, ptr %3, align 8, !tbaa !6
  %17 = lshr i64 %16, 16
  %18 = and i64 %17, 255
  %19 = trunc i64 %18 to i8
  %20 = load ptr, ptr %4, align 8, !tbaa !19
  %21 = getelementptr inbounds nuw i8, ptr %20, i32 1
  store ptr %21, ptr %4, align 8, !tbaa !19
  store i8 %19, ptr %20, align 1, !tbaa !68
  %22 = load i64, ptr %3, align 8, !tbaa !6
  %23 = lshr i64 %22, 24
  %24 = and i64 %23, 255
  %25 = trunc i64 %24 to i8
  %26 = load ptr, ptr %4, align 8, !tbaa !19
  store i8 %25, ptr %26, align 1, !tbaa !68
  ret void
}

; Function Attrs: inlinehint nounwind sspstrong willreturn memory(none) uwtable
define internal zeroext i1 @RB_NIL_P(i64 noundef %0) #5 {
  %2 = alloca i64, align 8
  store i64 %0, ptr %2, align 8, !tbaa !6
  %3 = load i64, ptr %2, align 8, !tbaa !6
  %4 = icmp eq i64 %3, 4
  ret i1 %4
}

; Function Attrs: nounwind sspstrong uwtable
define internal void @gzfile_make_header(ptr noundef %0) #0 {
  %2 = alloca ptr, align 8
  %3 = alloca [10 x i8], align 1
  %4 = alloca i8, align 1
  %5 = alloca i8, align 1
  store ptr %0, ptr %2, align 8, !tbaa !57
  call void @llvm.lifetime.start.p0(i64 10, ptr %3) #23
  call void @llvm.lifetime.start.p0(i64 1, ptr %4) #23
  store i8 0, ptr %4, align 1, !tbaa !68
  call void @llvm.lifetime.start.p0(i64 1, ptr %5) #23
  store i8 0, ptr %5, align 1, !tbaa !68
  %6 = load ptr, ptr %2, align 8, !tbaa !57
  %7 = getelementptr inbounds nuw %struct.gzfile, ptr %6, i32 0, i32 5
  %8 = load i64, ptr %7, align 8, !tbaa !54
  %9 = call zeroext i1 @RB_NIL_P(i64 noundef %8) #24
  br i1 %9, label %15, label %10

10:                                               ; preds = %1
  %11 = load i8, ptr %4, align 1, !tbaa !68
  %12 = zext i8 %11 to i32
  %13 = or i32 %12, 8
  %14 = trunc i32 %13 to i8
  store i8 %14, ptr %4, align 1, !tbaa !68
  br label %15

15:                                               ; preds = %10, %1
  %16 = load ptr, ptr %2, align 8, !tbaa !57
  %17 = getelementptr inbounds nuw %struct.gzfile, ptr %16, i32 0, i32 6
  %18 = load i64, ptr %17, align 8, !tbaa !55
  %19 = call zeroext i1 @RB_NIL_P(i64 noundef %18) #24
  br i1 %19, label %25, label %20

20:                                               ; preds = %15
  %21 = load i8, ptr %4, align 1, !tbaa !68
  %22 = zext i8 %21 to i32
  %23 = or i32 %22, 16
  %24 = trunc i32 %23 to i8
  store i8 %24, ptr %4, align 1, !tbaa !68
  br label %25

25:                                               ; preds = %20, %15
  %26 = load ptr, ptr %2, align 8, !tbaa !57
  %27 = getelementptr inbounds nuw %struct.gzfile, ptr %26, i32 0, i32 0
  %28 = getelementptr inbounds nuw %struct.zstream, ptr %27, i32 0, i32 0
  %29 = load i64, ptr %28, align 8, !tbaa !59
  %30 = and i64 %29, 1024
  %31 = icmp ne i64 %30, 0
  br i1 %31, label %36, label %32

32:                                               ; preds = %25
  %33 = call i64 @time(ptr noundef null) #23
  %34 = load ptr, ptr %2, align 8, !tbaa !57
  %35 = getelementptr inbounds nuw %struct.gzfile, ptr %34, i32 0, i32 4
  store i64 %33, ptr %35, align 8, !tbaa !51
  br label %36

36:                                               ; preds = %32, %25
  %37 = load ptr, ptr %2, align 8, !tbaa !57
  %38 = getelementptr inbounds nuw %struct.gzfile, ptr %37, i32 0, i32 2
  %39 = load i32, ptr %38, align 8, !tbaa !52
  %40 = icmp eq i32 %39, 1
  br i1 %40, label %41, label %46

41:                                               ; preds = %36
  %42 = load i8, ptr %5, align 1, !tbaa !68
  %43 = zext i8 %42 to i32
  %44 = or i32 %43, 4
  %45 = trunc i32 %44 to i8
  store i8 %45, ptr %5, align 1, !tbaa !68
  br label %57

46:                                               ; preds = %36
  %47 = load ptr, ptr %2, align 8, !tbaa !57
  %48 = getelementptr inbounds nuw %struct.gzfile, ptr %47, i32 0, i32 2
  %49 = load i32, ptr %48, align 8, !tbaa !52
  %50 = icmp eq i32 %49, 9
  br i1 %50, label %51, label %56

51:                                               ; preds = %46
  %52 = load i8, ptr %5, align 1, !tbaa !68
  %53 = zext i8 %52 to i32
  %54 = or i32 %53, 2
  %55 = trunc i32 %54 to i8
  store i8 %55, ptr %5, align 1, !tbaa !68
  br label %56

56:                                               ; preds = %51, %46
  br label %57

57:                                               ; preds = %56, %41
  %58 = getelementptr inbounds [10 x i8], ptr %3, i64 0, i64 0
  store i8 31, ptr %58, align 1, !tbaa !68
  %59 = getelementptr inbounds [10 x i8], ptr %3, i64 0, i64 1
  store i8 -117, ptr %59, align 1, !tbaa !68
  %60 = getelementptr inbounds [10 x i8], ptr %3, i64 0, i64 2
  store i8 8, ptr %60, align 1, !tbaa !68
  %61 = load i8, ptr %4, align 1, !tbaa !68
  %62 = getelementptr inbounds [10 x i8], ptr %3, i64 0, i64 3
  store i8 %61, ptr %62, align 1, !tbaa !68
  %63 = load ptr, ptr %2, align 8, !tbaa !57
  %64 = getelementptr inbounds nuw %struct.gzfile, ptr %63, i32 0, i32 4
  %65 = load i64, ptr %64, align 8, !tbaa !51
  %66 = getelementptr inbounds [10 x i8], ptr %3, i64 0, i64 4
  call void @gzfile_set32(i64 noundef %65, ptr noundef %66)
  %67 = load i8, ptr %5, align 1, !tbaa !68
  %68 = getelementptr inbounds [10 x i8], ptr %3, i64 0, i64 8
  store i8 %67, ptr %68, align 1, !tbaa !68
  %69 = load ptr, ptr %2, align 8, !tbaa !57
  %70 = getelementptr inbounds nuw %struct.gzfile, ptr %69, i32 0, i32 3
  %71 = load i32, ptr %70, align 4, !tbaa !53
  %72 = trunc i32 %71 to i8
  %73 = getelementptr inbounds [10 x i8], ptr %3, i64 0, i64 9
  store i8 %72, ptr %73, align 1, !tbaa !68
  %74 = load ptr, ptr %2, align 8, !tbaa !57
  %75 = getelementptr inbounds nuw %struct.gzfile, ptr %74, i32 0, i32 0
  %76 = getelementptr inbounds [10 x i8], ptr %3, i64 0, i64 0
  call void @zstream_append_buffer(ptr noundef %75, ptr noundef %76, i64 noundef 10)
  %77 = load ptr, ptr %2, align 8, !tbaa !57
  %78 = getelementptr inbounds nuw %struct.gzfile, ptr %77, i32 0, i32 5
  %79 = load i64, ptr %78, align 8, !tbaa !54
  %80 = call zeroext i1 @RB_NIL_P(i64 noundef %79) #24
  br i1 %80, label %94, label %81

81:                                               ; preds = %57
  %82 = load ptr, ptr %2, align 8, !tbaa !57
  %83 = getelementptr inbounds nuw %struct.gzfile, ptr %82, i32 0, i32 0
  %84 = load ptr, ptr %2, align 8, !tbaa !57
  %85 = getelementptr inbounds nuw %struct.gzfile, ptr %84, i32 0, i32 5
  %86 = load i64, ptr %85, align 8, !tbaa !54
  %87 = call ptr @RSTRING_PTR(i64 noundef %86)
  %88 = load ptr, ptr %2, align 8, !tbaa !57
  %89 = getelementptr inbounds nuw %struct.gzfile, ptr %88, i32 0, i32 5
  %90 = load i64, ptr %89, align 8, !tbaa !54
  %91 = call i64 @RSTRING_LEN(i64 noundef %90) #25
  call void @zstream_append_buffer(ptr noundef %83, ptr noundef %87, i64 noundef %91)
  %92 = load ptr, ptr %2, align 8, !tbaa !57
  %93 = getelementptr inbounds nuw %struct.gzfile, ptr %92, i32 0, i32 0
  call void @zstream_append_buffer(ptr noundef %93, ptr noundef @.str.169, i64 noundef 1)
  br label %94

94:                                               ; preds = %81, %57
  %95 = load ptr, ptr %2, align 8, !tbaa !57
  %96 = getelementptr inbounds nuw %struct.gzfile, ptr %95, i32 0, i32 6
  %97 = load i64, ptr %96, align 8, !tbaa !55
  %98 = call zeroext i1 @RB_NIL_P(i64 noundef %97) #24
  br i1 %98, label %112, label %99

99:                                               ; preds = %94
  %100 = load ptr, ptr %2, align 8, !tbaa !57
  %101 = getelementptr inbounds nuw %struct.gzfile, ptr %100, i32 0, i32 0
  %102 = load ptr, ptr %2, align 8, !tbaa !57
  %103 = getelementptr inbounds nuw %struct.gzfile, ptr %102, i32 0, i32 6
  %104 = load i64, ptr %103, align 8, !tbaa !55
  %105 = call ptr @RSTRING_PTR(i64 noundef %104)
  %106 = load ptr, ptr %2, align 8, !tbaa !57
  %107 = getelementptr inbounds nuw %struct.gzfile, ptr %106, i32 0, i32 6
  %108 = load i64, ptr %107, align 8, !tbaa !55
  %109 = call i64 @RSTRING_LEN(i64 noundef %108) #25
  call void @zstream_append_buffer(ptr noundef %101, ptr noundef %105, i64 noundef %109)
  %110 = load ptr, ptr %2, align 8, !tbaa !57
  %111 = getelementptr inbounds nuw %struct.gzfile, ptr %110, i32 0, i32 0
  call void @zstream_append_buffer(ptr noundef %111, ptr noundef @.str.169, i64 noundef 1)
  br label %112

112:                                              ; preds = %99, %94
  %113 = load ptr, ptr %2, align 8, !tbaa !57
  %114 = getelementptr inbounds nuw %struct.gzfile, ptr %113, i32 0, i32 0
  %115 = getelementptr inbounds nuw %struct.zstream, ptr %114, i32 0, i32 0
  %116 = load i64, ptr %115, align 8, !tbaa !59
  %117 = or i64 %116, 256
  store i64 %117, ptr %115, align 8, !tbaa !59
  call void @llvm.lifetime.end.p0(i64 1, ptr %5) #23
  call void @llvm.lifetime.end.p0(i64 1, ptr %4) #23
  call void @llvm.lifetime.end.p0(i64 10, ptr %3) #23
  ret void
}