; Function Attrs: nounwind sspstrong uwtable
define internal fastcc void @gzfile_make_header(ptr noundef captures(none) initializes((56, 64)) %0) unnamed_addr #0 {
  %2 = alloca [10 x i8], align 1
  call void @llvm.lifetime.start.p0(i64 10, ptr nonnull %2) #18
  %3 = getelementptr inbounds nuw i8, ptr %0, i64 176
  %4 = load i64, ptr %3, align 8, !tbaa !122
  %5 = icmp eq i64 %4, 4
  %spec.select = select i1 %5, i8 0, i8 8
  %6 = getelementptr inbounds nuw i8, ptr %0, i64 184
  %7 = load i64, ptr %6, align 8, !tbaa !123
  %8 = icmp eq i64 %7, 4
  %9 = or disjoint i8 %spec.select, 16
  %.1 = select i1 %8, i8 %spec.select, i8 %9
  %10 = load i64, ptr %0, align 8, !tbaa !113
  %11 = and i64 %10, 1024
  %.not = icmp eq i64 %11, 0
  br i1 %.not, label %12, label %._crit_edge

._crit_edge:                                      ; preds = %1
  %.phi.trans.insert = getelementptr inbounds nuw i8, ptr %0, i64 168
  %.pre = load i64, ptr %.phi.trans.insert, align 8, !tbaa !119
  br label %15

12:                                               ; preds = %1
  %13 = tail call i64 @time(ptr noundef null) #18
  %14 = getelementptr inbounds nuw i8, ptr %0, i64 168
  store i64 %13, ptr %14, align 8, !tbaa !119
  br label %15

15:                                               ; preds = %._crit_edge, %12
  %16 = phi i64 [ %.pre, %._crit_edge ], [ %13, %12 ]
  %17 = getelementptr inbounds nuw i8, ptr %0, i64 160
  %18 = load i32, ptr %17, align 8, !tbaa !120
  %switch.selectcmp = icmp eq i32 %18, 9
  %switch.select = select i1 %switch.selectcmp, i8 2, i8 0
  %switch.selectcmp27 = icmp eq i32 %18, 1
  %switch.select28 = select i1 %switch.selectcmp27, i8 4, i8 %switch.select
  store i8 31, ptr %2, align 1, !tbaa !149
  %19 = getelementptr inbounds nuw i8, ptr %2, i64 1
  store i8 -117, ptr %19, align 1, !tbaa !149
  %20 = getelementptr inbounds nuw i8, ptr %2, i64 2
  store i8 8, ptr %20, align 1, !tbaa !149
  %21 = getelementptr inbounds nuw i8, ptr %2, i64 3
  store i8 %.1, ptr %21, align 1, !tbaa !149
  %22 = getelementptr inbounds nuw i8, ptr %2, i64 4
  %23 = trunc i64 %16 to i8
  %24 = getelementptr inbounds nuw i8, ptr %2, i64 5
  store i8 %23, ptr %22, align 1, !tbaa !149
  %25 = lshr i64 %16, 8
  %26 = trunc i64 %25 to i8
  %27 = getelementptr inbounds nuw i8, ptr %2, i64 6
  store i8 %26, ptr %24, align 1, !tbaa !149
  %28 = lshr i64 %16, 16
  %29 = trunc i64 %28 to i8
  %30 = getelementptr inbounds nuw i8, ptr %2, i64 7
  store i8 %29, ptr %27, align 1, !tbaa !149
  %31 = lshr i64 %16, 24
  %32 = trunc i64 %31 to i8
  store i8 %32, ptr %30, align 1, !tbaa !149
  %33 = getelementptr inbounds nuw i8, ptr %2, i64 8
  store i8 %switch.select28, ptr %33, align 1, !tbaa !149
  %34 = getelementptr inbounds nuw i8, ptr %0, i64 164
  %35 = load i32, ptr %34, align 4, !tbaa !121
  %36 = trunc i32 %35 to i8
  %37 = getelementptr inbounds nuw i8, ptr %2, i64 9
  store i8 %36, ptr %37, align 1, !tbaa !149
  call fastcc void @zstream_append_buffer(ptr noundef nonnull %0, ptr noundef nonnull %2, i64 noundef 10)
  %38 = load i64, ptr %3, align 8, !tbaa !122
  %39 = icmp eq i64 %38, 4
  br i1 %39, label %48, label %40

40:                                               ; preds = %15
  %41 = inttoptr i64 %38 to ptr
  %42 = load i64, ptr %41, align 8, !tbaa !16, !noalias !262
  %43 = and i64 %42, 8192
  %.not.i.i = icmp eq i64 %43, 0
  %44 = getelementptr inbounds nuw i8, ptr %41, i64 24
  br i1 %.not.i.i, label %RSTRING_PTR.exit, label %45

45:                                               ; preds = %40
  %.sroa.2.0.copyload.i = load ptr, ptr %44, align 8
  br label %RSTRING_PTR.exit

RSTRING_PTR.exit:                                 ; preds = %40, %45
  %.sroa.2.0.i = phi ptr [ %.sroa.2.0.copyload.i, %45 ], [ %44, %40 ]
  %46 = getelementptr inbounds nuw i8, ptr %41, i64 16
  %47 = load i64, ptr %46, align 8, !tbaa !21
  call fastcc void @zstream_append_buffer(ptr noundef nonnull %0, ptr noundef %.sroa.2.0.i, i64 noundef %47)
  call fastcc void @zstream_append_buffer(ptr noundef nonnull %0, ptr noundef nonnull @.str.169, i64 noundef 1)
  br label %48

48:                                               ; preds = %RSTRING_PTR.exit, %15
  %49 = load i64, ptr %6, align 8, !tbaa !123
  %50 = icmp eq i64 %49, 4
  br i1 %50, label %59, label %51

51:                                               ; preds = %48
  %52 = inttoptr i64 %49 to ptr
  %53 = load i64, ptr %52, align 8, !tbaa !16, !noalias !265
  %54 = and i64 %53, 8192
  %.not.i.i29 = icmp eq i64 %54, 0
  %55 = getelementptr inbounds nuw i8, ptr %52, i64 24
  br i1 %.not.i.i29, label %RSTRING_PTR.exit32, label %56

56:                                               ; preds = %51
  %.sroa.2.0.copyload.i30 = load ptr, ptr %55, align 8
  br label %RSTRING_PTR.exit32

RSTRING_PTR.exit32:                               ; preds = %51, %56
  %.sroa.2.0.i31 = phi ptr [ %.sroa.2.0.copyload.i30, %56 ], [ %55, %51 ]
  %57 = getelementptr inbounds nuw i8, ptr %52, i64 16
  %58 = load i64, ptr %57, align 8, !tbaa !21
  call fastcc void @zstream_append_buffer(ptr noundef nonnull %0, ptr noundef %.sroa.2.0.i31, i64 noundef %58)
  call fastcc void @zstream_append_buffer(ptr noundef nonnull %0, ptr noundef nonnull @.str.169, i64 noundef 1)
  br label %59

59:                                               ; preds = %RSTRING_PTR.exit32, %48
  %60 = load i64, ptr %0, align 8, !tbaa !113
  %61 = or i64 %60, 256
  store i64 %61, ptr %0, align 8, !tbaa !113
  call void @llvm.lifetime.end.p0(i64 10, ptr nonnull %2) #18
  ret void
}